; Function Attrs: mustprogress uwtable
define noundef double @_ZNK8QuantLib13Fdm2DimSolver13interpolateAtEdd(ptr noundef nonnull align 8 dereferenceable(296) %this, double noundef %x, double noundef %y) local_unnamed_addr #9 align 2 {
entry:
  %vtable = load ptr, ptr %this, align 8, !tbaa !33
  %vfn = getelementptr inbounds i8, ptr %vtable, i64 24
  %0 = load ptr, ptr %vfn, align 8
  tail call void %0(ptr noundef nonnull align 8 dereferenceable(12) %this)
  %interpolation_ = getelementptr inbounds nuw i8, ptr %this, i64 280
  %1 = load ptr, ptr %interpolation_, align 8, !tbaa !135
  %cmp.not.i = icmp eq ptr %1, null
  br i1 %cmp.not.i, label %cond.false.i, label %_ZNK5boost10shared_ptrIN8QuantLib13BicubicSplineEEdeEv.exit, !prof !51

cond.false.i:                                     ; preds = %entry
  tail call void @_ZN5boost16assertion_failedEPKcS1_S1_l(ptr noundef nonnull @.str.13, ptr noundef nonnull @__PRETTY_FUNCTION__._ZNK5boost10shared_ptrIN8QuantLib13BicubicSplineEEdeEv, ptr noundef nonnull @.str.14, i64 noundef 778)
  %.pre.i = load ptr, ptr %interpolation_, align 8, !tbaa !135
  br label %_ZNK5boost10shared_ptrIN8QuantLib13BicubicSplineEEdeEv.exit

_ZNK5boost10shared_ptrIN8QuantLib13BicubicSplineEEdeEv.exit: ; preds = %entry, %cond.false.i
  %2 = phi ptr [ %1, %entry ], [ %.pre.i, %cond.false.i ]
  tail call void @_ZNK8QuantLib15Interpolation2D10checkRangeEddb(ptr noundef nonnull align 8 dereferenceable(32) %2, double noundef %x, double noundef %y, i1 noundef zeroext false)
  %impl_.i = getelementptr inbounds nuw i8, ptr %2, i64 16
  %3 = load ptr, ptr %impl_.i, align 8, !tbaa !140
  %cmp.not.i.i = icmp eq ptr %3, null
  br i1 %cmp.not.i.i, label %cond.false.i.i, label %_ZNK8QuantLib15Interpolation2DclEddb.exit, !prof !51

cond.false.i.i:                                   ; preds = %_ZNK5boost10shared_ptrIN8QuantLib13BicubicSplineEEdeEv.exit
  tail call void @_ZN5boost16assertion_failedEPKcS1_S1_l(ptr noundef nonnull @.str.13, ptr noundef nonnull @__PRETTY_FUNCTION__._ZNK5boost10shared_ptrIN8QuantLib15Interpolation2D4ImplEEptEv, ptr noundef nonnull @.str.14, i64 noundef 784)
  %.pre.i.i = load ptr, ptr %impl_.i, align 8, !tbaa !140
  br label %_ZNK8QuantLib15Interpolation2DclEddb.exit

_ZNK8QuantLib15Interpolation2DclEddb.exit:        ; preds = %_ZNK5boost10shared_ptrIN8QuantLib13BicubicSplineEEdeEv.exit, %cond.false.i.i
  %4 = phi ptr [ %3, %_ZNK5boost10shared_ptrIN8QuantLib13BicubicSplineEEdeEv.exit ], [ %.pre.i.i, %cond.false.i.i ]
  %vtable.i = load ptr, ptr %4, align 8, !tbaa !33
  %vfn.i = getelementptr inbounds i8, ptr %vtable.i, i64 104
  %5 = load ptr, ptr %vfn.i, align 8
  %call2.i = tail call noundef double %5(ptr noundef nonnull align 8 dereferenceable(8) %4, double noundef %x, double noundef %y)
  ret double %call2.i
}